(lp0
S' \n'
p1
aS'+ almost days since using phone delivers more beyond new observations build quality excellent build survived feet drop marble nothing happened phone not tiny scratch screen user interface used feels pretty good letv has announced next version eui ui no battery though battery life somewhat low initial decent battery life lasts whole battery life optimized new ota customer service visited service center had talk letv customer care regarding minor software unlike letv customer care executive listening query very patiently response \n'
p2
aS'+ premium build value money full hd display angle really looks no body believe phone costs lookwise comparable above k phones finger print sensor times working flawelessly experienced no lag far quick charging grt percent percent minutes ir blaster supports kind tv ac blue star o genaral support not built quality simply metal k really \n'
p3
aS'- battery camera issue purchased phone flagship phone here reviews using days pros battery charged fast speed build quality very good display very good cons battery backup very drain minute battery camera quality very indoor quality very poor compare competitor phone like note no memory card slot kind vibration phone charging mode due metal not suitable usage while \n'
p4
aS'- heat issue phone looks good like toy show case major problem heating issue u cannot spend more time phone long calls ear burn browse more hand burn stratup idea make cooling pad put flash sale \n'
p5
aS'- good phone very poor battery horrible camera dilemma whether note le lot gave excited book phone flash sale more excited till phone phone looks extremely stylish disappointed battery performance horrible \n'
p6
aS'- mobile iron box phone gets heats mins goes nearly going return total waste time not worthy \n'
p7
aS'- worst camera quality not recommended bought phone satisfied design features such fingerer sensor lock total dissatisfied camera picture quality clicked picture blured zoom please guys those photos freaks please not buy another thing realized comapny gave ram phone customer gb available free memory too \n'
p8
aS'- heating heavily drastic charging phone mins phone charging not gb ram \n'
p9
aS'- not worth buying update requested replacement option got new letv le headphone jack issue has been seems hardware defect still battery drain heat huge waiting software need mention flipkart flipkart service awesome very definitely flipkart service rate product still \n'
p10
aS'+ excellent samsung always awesome device mobile budget category fully thinking ram adequate not more adequate hassle free exchange processor good ram good not hanging no heating replaceble battery excellent front camera samsung music excellent lightning fast clear bright display awesome touchscreen battery huge mah excellent ui \n'
p11
aS'+ awesome phone ordered phone delivered flipkart stars flipkart ws retail delivering coming backed data previous phone transferred smoothly without using sd \n'
p12
aS'+ loveeeeeee phone phone jus worth guys damn confused before buying phone past exp samsung not everyday surfing finding new phone launched finally decided great configuration phone smooth smart n lets not wat others buy super budgeted phone great owsm battery no hanging heating \n'
p13
aS'+ excellent super fast good screen looking buy new phone wife best thing super happy too here product yes really value money excellent build quality light weight compare bulky asus etc slim thick compare bulky asus inch full hd screen quite actually really good wont notice difference monster around days normal \n'
p14
aS'- good phone good phone price bracket screen very fragile dropped rupee coin screen accidentally whole display cracked u buy pls handle care no notification led missed calls sms alerts very very fragile display \n'
p15
aS'+ superb mobile price usual ws seller delivery very nice good battery camera quality screen resolution clarity ram gb mb left rest mobile general features like recommend buy samsung price superb quality worth \n'
p16
aS'- pathetic camera friends listen carefully had bought cell before yesterday today morning reason found rear camera pathetic specially dark night compare camera grand much clear n suggestion pls buy \n'
p17
aS'+ akki nov certified buyer super good phone super cheap price writing review using phone amazingly great super battery excellent voice good speaker great inch battery lasted very extensive various apps many though ram phone worked super wise phone looked like expensive worth rich phone though reality around super excellent value \n'
p18
aS'+ good phone positive good camara quality front rear video play awesome large tft screen good handle negitive ram low far price concern compaired brands low internal memory \n'
p19
aS'+ cheap price worthy super phone light weighted fancy fast delivery flipkart diwali flipkart folks \n'
p20
aS'+ lacks few stands lot had desperately been waiting phone since motorola definitely made wait lets analyze wait worth phone heating like microwave oven days got x style feel slightly biggest feature miss phone lacks moto something expecting phone motorola has not released moto maker happy price tag had moto maker been \n'
p21
aS'- good mobile heating mobile good running mainly mobile heating while taking video surfing playing games minutes mobile gets heated like microwave apart heating issue mobile \n'
p22
aS'+ awesome received moto x style last let initial excellent display though not using amoled options display settings make display either normal both front cameras photos taken dark places appears another important feature like emphasize moto action moto using phone comes turbo takes very less time charged top \n'
p23
aS'+ anurag singh oct review certified buyer brilliant phone excellent service phone released october received great speedy delivery awesome packaging coming phone great hold looks highlighting feature mp awesome selfie flash phone filled sensors enhancing user experience very snappy snapdragon handles everything exceptionally has no heating issues speakers excellent viewing videos playing \n'
p24
aS'+ best class issues let put like product best price range however couple issues feel motorola should clarified while launch bit inbuilt memory gb usable memory gb very less install heavy turbo charger non detachable means cannot charge phone portable power bank while travelling always carry extra usb cable charge \n'
p25
aS'+ awesome simple superb great lovely audio turbo charger no lags no heating camera \n'
p26
aS'+ much wrong received moto x style nov had couple days check befor writing build sexy feels premium hand rubberised textured makes super primarily handed device through casual fuctionalities display crisp awesome not amoled not deal breaker \n'
p27
aS'+ wrong buying product comprehensive review moto x style gb variant been using phone past few days found display quad hd sheer beauty downgrade last super amoled display lcd panel super crisp add resolution sharper text vibrant watching videos youtube \n'
p28
aS'+ best android phones price range bought phone during basd sale got where exchanged trusty nokia lumia used more bought android phones g xiaomi oneplus were epic fails view manage simple tasks without crazy analysis finalised phone love \n'
p29
aS'+ decent glass protection package consists sets glasses decent not makes phone \n'
p30
aS'- shortage size not fit moto x style not good very short size scree moto x style never suggested purchase product loss money \n'
p31
aS'- low quality product hi bought product july flash phone seems fine concern being high sar product delivered phone worked fine noticed battery drain within few hours charging post battery gave tried using another battery switch phone phone works surprised lenovo providing such poor quality products flipkart backing \n'
p32
aS'+ awsome phone bought few seconds delivered within hours flikart best phone range awesome features full hd screen camera mp great quality faster phone long battery life much more best phone buy today miss next sell \n'
p33
aS'- heating tooo badly purchased flipkart got product july swipe cause excessively heating checking scree temperature placed return request assistant told submit mobile service not responsible kind heating issue product purchase \n'
p34
aS'- problem lenovo heat draining battery feel heat while talking feel starting bad design charging port top phone near ear should mic \n'
p35
aS'+ great phone good great ui no sound quality awesome display very game performance better every thing good expect rear average camera no face detection features rear lot pre installed remove \n'
p36
aS'+ best brand specs phone price fantastic upgrade terms configuration best value camera quality cons buying \n'
p37
aS'+ awesome phone own plan inch bought phone flash sale following observartions using pros light persons checked mobile surprised light weight weight distibution crisp clear dolby sennheiser cx full hd awesome watching hd video like similar sony bravia display phones good build quality below slim \n'
p38
aS'- heating battery drainage bad battery drains very fast heating many people facing same problem not going upgrading latest \n'
p39
aS'- worst highly disappointed autocancelled reaching nearest no logical reason available customer shall opt consumer \n'
p40
aS'- heat problem open applications min heated much internet related ravi \n'
p41
aS'- very heating please buy like heating started setting phone boot phone got heated really unbearable \n'
p42
aS'- very poor display not gorilla hi seriously doubt phone has corning ogs bought new few mi gorilla glass got cracked little thumb pressure touch not service center told cost rs phone costing display costing overall experience review very dont chinese company \n'
p43
aS'- quality issues issues led leak bottom under phone overheats brief usage requested waiting reply \n'
p44
aS'- sound problem vibrate tv volume hang problem connect time not every time \n'
p45
aS'+ worth every star rating flipkart bought tv last month using last picture quality no lesser samsung inch tv sound quality initially not change equaliser sound good connected tv audio home theatre better surround has dvd dvd microphone cable tv no tv has much \n'
p46
aS'- not satisfied sound quality picture quality tv nice except audio system makes irritating vibrating sound low tried connecting external high frequency noise connecting external speaker bose not noise problem coming \n'
p47
aS'+ good product buy hi had seen comment not picture quality sound both play format video through connect pen thanks \n'
p48
aS'+ micromax led tv packing excellent deliver time not satisfactory should change address demo insatallation call sevice person times flipkarts costmer service excellent service tv display good connecting options good sound little low value mony \n'
p49
aS'+ best micromax flipkart helped best previously used philips lcd tv best tv purchased got decided upgrade finally decided receiving item very sound picture quality \n'
p50
aS'+ delight ordered got delivered read many saying sound quality not picture quality sound too good price worth \n'
p51
aS'+ best confused between lenovo note le honor trusting ordered good phone very beautiful nicely performance ui lags no lags using app playing games runs super had talk huawei customer care told emui coming phone make ui more beautiful much \n'
p52
aS'+ wonderful product huawei thank u phone excellent according using music everything disappointment headphone missing u buy market final without wasting time masterpiece smartphone compare flagship superb \n'
p53
aS'+ costly phone value issue otg not good charger not available light \n'
p54
aS'+ good phone average users overall looks performance good phone internal \n'
p55
aS'+ good phone item having good features though battery low internal memory good music camera sound quality quite easy nice smartphone \n'
p56
aS'- poor camera not suggested camera display poor battery good lags alot purchased yu yunique much much better \n'
p57
aS'- screen resolution below par phone fine not low quality been more pixel density screen make phone complete otherwise phone best price range \n'
p58
aS'- not featured touch camera quality too poor biggest problem ram much expect within \n'
p59
aS'+ good phone price range good phone screen size inch latest android version drawback product internal memory gb available memory gb \n'
p60
aS'+ cost effective good phone ram runs bit slow due bg touch response network connectivity no issues \n'
p61
aS'- internal memory too low average internal memory very unable update not enough \n'
p62
aS'- product affordable per average facing problem touch \n'
p63
aS'+ good phone good price got phone quit good facing display issue lock device automaticaly starts anyone has idea please help \n'
p64
aS'- good buck paid nice features very low internal gb run facebook app otg product \n'
p65
aS'- not suitable those using games service phone utter battery not good \n'
p66
aS'- worst product very poor very bad totally waste bought crying ever \n'
p67
aS'+ micro max mobiles slim sound effect very always charging compare micro max canavas very low \n'
p68
aS'+ nice phone average phone u expect much price satisfied product makes u happy quick delivery got days snapdeal awesome hope product good long lasting \n'
p69
aS'- okk ok good low specified internal memory below expectation \n'
p70
aS'- not worth bad phone using phone last response very video play absolutely not battery life \n'
p71
aS'- low memory said internal memory hardly has \n'
p72
aS'- not satisfy using month opinion quite apps suddenly getting close automaticaly while games like candy crush games r not working properly campared fone \n'
p73
aS'- touch screen very touch screen poor \n'
p74
aS'- micromax canvas android sir software problems mobile facing downloading problem mobile \n'
p75
aS'- waste money bad phone evereyone u connects wifi battery backup hours speaker not hear cloudy places camera not great more apps sre forced stoped minutes gap \n'
p76
aS'+ micromax good product purchased purchased mobile before still no problem mobile mobile compare lot option instead \n'
p77
aS'- not too good speed very app not working light operation switch off hang set few ear phone not talk \n'
p78
aS'+ not bad avarage not too bad not too thing did not like camera quality especially front camera quality poor givea heart attack whenever take selfie ok \n'
p79
aS'- micromax al rom not basic like storage music pics vedio gb rom app \n'
p80
aS'+ gud low budget average mobile time android quad latest overall gud low \n'
p81
aS'- worst camera not working got handset recently using found camera not indicates file not facing unique problem \n'
p82
aS'- not worth buying major problem phone connect wifi network another problem \n'
p83
aS'+ micromax canvas android nice phone product time good service snapdeal \n'
p84
aS'+ canvas android magnetic black everything fine except memory slot battery not much stable \n'
p85
aS'- needs special something gb not support sound very low \n'
p86
aS'- no sim gallery file manag great battery backup speaker not too installed apps not great no sim gallery file manager \n'
p87
aS'- weak battery battery backup very android phones phone has very poor battery \n'
p88
aS'+ average product using product last delivery snapdeal per product screen guard updated no lags screen battery life not sound camera result above average product time user take long time evaluate product hardware quality \n'
p89
aS'- not satisfied price product connect headphone not call disconnecting while speaking battery backup \n'
p90
aS'- worst not battery recharge not appstore working sd card fault totally waste product \n'
p91
aS'- very late seller has not product sanpdeal ordered process got late \n'
p92
aS'- good not convenient expected snapdeal service purchase snapdeal shifted away flipkart snapdeal disappoint packaging infact product delivered product genuine per had pay apple guy system refused bill not \n'
p93
aS'- reach satisfaction good phone business purpose \n'
p94
aS'- delivwry partners awwful looks awesome no dint screen protector phone though ots expensive phone snapdeal should provided screen delivery very receives phone week aftwr chasing order courier \n'
p95
aS'+ awesome ws concerned whether buy costly product snapdeal bt got vry good genuine checked apple self service phone displayed iphone not activating phone again checked warranty started time phone m happy iphone fault found phone getting too hot while charge network phone buttons snapdeal help \n'
p96
aS'+ good product ios nice product delivered \n'
p97
aS'- phone review voice quality not good expected iphone \n'
p98
aS'+ exact required product good product product exact required \n'
p99
aS'- average delivery time good overall experience average upgraded phone not satisfied much expcted \n'
p100
aS'+ good product good safety delivery \n'
p101
aS'- bad experience not working like apple devicedevice freezing issue twice \n'
p102
aS'- recommended price range provided price range bought phone month okay using few days type brand new phone started hang lot very much disappointed kind has internal memory space were occupied system sometimes while using phone automatically icons tapped gets hanged cant cancel overall mobile recommended price probbably \n'
p103
aS'+ infocus screen resolution rear camera picture quality pretty n front camera thing like rather phone design construction slim n \n'
p104
aS'- good phone not music u r music lovers not pr speaker sound quality very mint uses phone create heat quality very good m not find lags range \n'
p105
aS'+ good quality phone good quality phone body camera touch weight reasonable display buying phone hope feel made best \n'
p106
aS'- good phone good phone problem using internet battery starts discharging microsd card slot provided slot separate provided quality average \n'
p107
aS'+ nice mobile slim nice mobile slim speaker good battery not bad speed good \n'
p108
aS'+ infocus battery performance touch good mobile \n'
p109
aS'- not camera not good photo zz zoomed looks like brought launger has been reset phone correct prize not scree good phone become heat timezz \n'
p110
aS'- infocus mobile ok product drawback second sim slot place ther either sim sd place ther sd card like single sim memory less delivery service allahabad not upto dilveryman inform before reaching destination receive item \n'
p111
aS'- system bit slower nano sim option waste option internal memory displaying below product \n'
p112
aS'+ single sim memory card dual sim memory card pretty good teerms cost not satisfactory terms dual sim dual sim sim memory card \n'
p113
aS'- charger problem given charger not working cant able charge phone given charger battery getting down fastly cant access phone till hours switching off within hrs though charged problem phone functioning \n'
p114
aS'+ good budget phone good price u receive latest facilities u dont play high level games owsome phone yhat range issues like dual acceptable range overall good facilities range buy \n'
p115
aS'+ like good nice super low weight mobile \n'
p116
aS'- hybrid sim slot bad hybrid sim not good using sim memory card using sim otherwise not using sim \n'
p117
aS'- average mobile mobile looking very good good price heating main defect mobile heating while talking gaming verify others momobile heating \n'
p118
aS'- poor battery performance while iam purchasing expectations too using mobile feedback positve feed backs mobile looking light negative poor battery performance camera not mark while playing games mobile getting accessories not getting market like phone tamper \n'
p119
aS'- xolo black product very good sleek fall short camera specially shots artificial lights noticed strange limitation device not playing files external card overheating bit \n'
p120
aS'- xolo black good product getting heat not set own ringtones not continuously half hour \n'
p121
aS'- avrage ph avrge camera n batry bckup foxol recived yestrdy phone good gb ram prblm both sim mmry card sme time prblm low btry backup n average camera not mp \n'
p122
aS'- not good prodect sim card open slat very memory card trucked side not open easily through u r given pls suggest too heat using not satisfactory camera flip cover not available market screen pls make improve protect soon thanking \n'
p123
aS'- good mobile battery problem phone overheat quickly camera not good multitasking problematic phone system crashes many times good thing has gb user memory buy \n'
p124
aS'- xolo black description no battery camera clearity not mp \n'
p125
aS'+ good good not bad rates \n'
p126
aS'+ xolo black ix feature battery not very good \n'
p127
aS'- average not \n'
p128
aS'+ battery everything perfect except \n'
p129
aS'- good not satisfied performance good camer quality not good expected more \n'
p130
aS'+ latest feature less price battery backup not good feature good \n'
p131
aS'- xolo black not hotmail contacts shows gmail uses nano sim cards limiting older \n'
p132
aS'+ good phone price awesome phone android pros ram very smooth cons battery drains very quickly used charge iphone times power bank phone good phone \n'
p133
aS'- speaker quality worst comparatively basic phones phone speaker very camera not great take photos \n'
p134
aS'- not great kinda not better quality products local strictly average \n'
p135
aS'+ awesome liked colour not fading nor going while bought fitting doing good reasonable \n'
p136
aS'+ quality products smooth good looking casual shirts fit good quality happy product \n'
p137
aS'+ good online shooing site trust ordered shirts both fitted size chart helped perfect very complaint black shirt lose color soaked \n'
p138
aS'+ junkies good not great otherwise gud \n'
p139
aS'+ shirt fav item perfect love \n'
p140
aS'+ shirts prompt quality delivery per order \n'
p141
aS'+ good producrt good coloure product price product like both \n'
p142
aS'+ worth value tried both shirts found pretty material superior quality rich cuts exactly same appear more less like slim \n'
p143
aS'+ good fit nice buttons black not white depicted \n'
p144
aS'+ average overall phone good battery backup pathetic \n'
p145
aS'- not upto google product standard average times show force good \n'
p146
aS'+ handling very good take much time upgrade lollipop phone sim internet not both everything \n'
p147
aS'- not bad no file little bit flash \n'
p148
aS'- take product very bad mobile no battery backup battery remains hour full charging \n'
p149
aS'- minus point u save numbers sim card no default gallery rest camera nice \n'
p150
aS'+ micromax review ordered fist time product delivered good condition agreed time snapdeal service \n'
p151
aS'- rated worst phone ever had applications not working mainly playstore not working sometimes going hanged sometime buy phone lumia better choice \n'
p152
aS'- very poor phone phone has serious problem receives cellular \n'
p153
aS'- micromax canvus phone no good respect purchased micromax canvas android snap deal online service phone battery life no good backup no more ten hours like phone \n'
p154
aS'+ great phone price master piece battery backup display good last happy buy smartphone love mobile \n'
p155
aS'+ u consider worth bought phone specs phone good dont exepct nexus like \n'
p156
aS'+ best phone low budget more backup \n'
p157
aS'- not good no streaming \n'
p158
aS'+ very good phone good \n'
p159
aS'- waste camera much better phones lower prices \n'
p160
aS'- battery not worth \n'
p161
aS'- very lagging installing screen easily \n'
p162
aS'- company not launching good phone not recommended \n'
p163
aS'+ service xiaomi india not much good big brands still doing level best bought xiaomi india products none required visit service center \n'
p164
aS'- apps cannot moved memory card gb space available phone apps consumed whats \n'
p165
aS'+ excellent good price common \n'
p166
aS'- heating issue battery \n'
p167
aS'+ awesome phone price full good \n'
p168
aS'+ very nice mobile good \n'
p169
aS'- phone issue while call received side cont able listen properly talking speaker below make issue while \n'
p170
aS'- net speed very tube very m nt much satisfied \n'
p171
aS'+ great device worth \n'
p172
aS'+ mah battery battery backup really impressive charge charges \n'
p173
aS'- display sensor sometimes not \n'
p174
aS'+ awesome great battery awesome good fast perfect gaming \n'
p175
aS'- accessories dump charger adapter stopped working earphone stopped working \n'
p176
aS'+ ram came good battery liked \n'
p177
aS'+ \n'
p178
aS'+ mobile deserves know lets find been using phone months thanks office gave daily best price \n'
p179
aS'- junk charger port gone bad within months better buy \n'
p180
aS'+ love very nice mobile like \n'
p181
aS'- worse month battery backup poor heating \n'
p182
aS'+ excellent contains every feature claims \n'
p183
aS'- battery not much dried \n'
p184
aS'+ amazing smartphone customised \n'
p185
aS'- phone ok sale service very four months usage white lines appeared screen \n'
p186
aS'+ best mobile budget \n'
p187
aS'- no head phones received bad \n'
p188
aS'+ excellent handset according needed \n'
p189
aS'+ bought happy heard complaints till budget good \n'
p190
aS'+ im using mobile since months experience no excellent audio video quality compared mobile phones under \n'
p191
aS'+ best phone lenovo did great job pros include excellent phone lenovo budget no hang problems \n'
p192
aS'+ remarkable feature phone front camera image comes software enhances face suits very selfie \n'
p193
aS'+ very good mobile fast speed very apps running screen resolution brighten natural front camera clarity \n'
p194
aS'- phone has more cons has decent affordable poor ui battery drains very fast slow operations \n'
p195
aS'+ phone used samsung lumia best price \n'
p196
aS'- very not happy \n'
p197
aS'+ good phone zero \n'
p198
aS'- camera quality battery require long time charge battery \n'
p199
aS'+ phone very nice good battery \n'
p200
aS'+ value product design very slim light weight camera good selfie king queen guess \n'
p201
aS'- average inspite specs very no gorilla \n'
p202
aS'+ phone good camera clarity sound system \n'
p203
aS'- been using phone almost assure no matter specs attractive looks price regret buying rest simply make life living hell worked fine months started showing true \n'
p204
aS'+ excellent working totally worth love \n'
p205
aS'- not worth half camera \n'
p206
aS'- hate fact spent money \n'
p207
aS'+ phone best ever \n'
p208
aS'+ not bad thing simply \n'
p209
aS'- worst phone ever switched gave service centre getting worst possible waiting ten days \n'
p210
aS'+ product fast smooth camera not good low gainy pictures rooms \n'
p211
aS'+ battery lasts moderately heavy screen updated marshmallow no heating \n'
p212
aS'- heating cant play games more \n'
p213
aS'+ best phone truly \n'
p214
aS'- terrible money \n'
p215
aS'- got faulty sim slot not working always showing no \n'
p216
aS'+ camera selfie king queen guess phone phone gaming gaming play almost games without having lagging \n'
p217
aS'+ phone price very better \n'
p218
aS'- guys new os update make life hell lagging n unable open phone book messages app application music automatically shutdown \n'
p219
aS'+ value got yesterday noted few things phone design very slim light weight has very good quality battery gets charged early lasts long \n'
p220
aS'- touch screen not working properly days encountered many problems still roaming forth service \n'
p221
aS'- request everyone not buy product three months using mobile suddenly shutdown trying switch display not \n'
p222
aS'+ smooth touch good battery life without stays days maximum without decent mp rear camera though expect hifi cam mp front camera okay \n'
p223
aS'- worst product ever week purchase not working \n'
p224
aS'+ very simple very elegant google talk best \n'
p225
aS'+ writing week using worth lenovo very good product compared chinese very quick loads phone iphone lenovo comparable camera quality build quality price inr \n'
p226
aS'- ok product feel good except display aspects phone lollipop update everything went reset things phone freezes never had issues gen moto phone very light \n'
p227
aS'- horrible took service centre said battery asked take another service centre said motherboard faulty repaired still did not \n'
p228
aS'- suggest people expected phone \n'
p229
aS'+ hats off got phone delivered remote town gift best phone very handy classy battery backup far better both primary secondary cameras \n'
p230
aS'- phone worked fine days started giving call gets phone gets try dial number contacts number gets bought gift feel really bad gifting such bad \n'
p231
aS'- phone gets heated very google recommendation unmout sd card phone not per recommendation unmounted sd unable view files pls suggest view \n'
p232
aS'- phone not upto running hanging irritating times phone urgent hanging switchoff expected lot \n'
p233
aS'+ phone very sound system internet connection worth best value money battery life improved built memory had increase sd \n'
p234
aS'+ friends genuine best phone configurations camera screen good headset coming phone good phone \n'
p235
aS'-worst mobile poor performance hanging contacts not display immediately internet response incoming calls launcher loading poor \n'
p236
aS'+ good sound effects best battery backup very good mobile best filp cover cool mango brand buy \n'
p237
aS'- worst phone ever not reliable comes mobile hangs too every gets slow within month happens ever lenovo \n'
p238
aS'- worst ever phone bought life hanging like anything display prob battery doesnt stand half hear phone sucks \n'
p239
aS'- not wow factor call drop network issue common limited space \n'
p240
aS'+ awesome phone price range android device had thrill using good job making \n'
p241
aS'+ good smart phone starting smart purchased lot online good those purchasing smart phone camera not good pictures not too \n'
p242
aS'+ good budget took using phone since last used great windows os sharing usage excellent average remember budget facing problem photo seen gallery poor same photo good quality related ex photo camera gallery very poor quality same photo very good u seen camera battery average apps average usage average compared gorilla glass display need more updates \n'
p243
aS'- battry very bad ok battry very bad \n'
p244
aS'- not installing apps \n'
p245
aS'- simply waste buy product snapdeal \n'
p246
aS'- snapdeal screws yet initial order cancelled new order took weeks supposed gift reason chose snapdeal order placed phone delivered comes best phone conked off exactly week believe friend called today morning saying phone switch gotta run find micromax service centre try thing has taught very valuable never buy stuff snapdeal ever lost faith \n'
p247
aS'+ good phone rough got ma data cable connected adapter not working phone hardware specifications pretty good wherein software phone same updating u may face issues may help u store planning return b quite challenging u vl end paying more local tech may remove parts \n'
p248
aS'+ ordinary micromax canvas very good mobile whole outstanding except battery \n'
p249
aS'- judge book take more charging time hours fully charging gets battery down hours stand \n'
p250
aS'- ordinary phone futures everything ok display very nice battery quickly decrees need request more battery developed \n'
p251
aS'+ average performance average performance camera quality overall not value \n'
p252
aS'+ best phone best phone services snapdeal delivered before \n'
p253
aS'- micromax phone good service bad took month deliver \n'
p254
aS'- packaging pathetic phone awesome no wonder packaging iphone box kept inside snapdeal cardboard box wonder came safely \n'
p255
aS'+ deal phone delivery issues always \n'
p256
aS'- budget phone not very file manager not available phone yet international users good normally awesome mobile phone experiance \n'
p257
aS'- not good deal battery backup audio quality very perfomance very \n'
p258
aS'- ordinary nice phone good clarity battery backup \n'
p259
aS'- mobile good heat phone phone minutes heat \n'
p260
aS'- not worth not fully made plastic \n'
p261
aS'+ awesome nice phone range updating lollipop quickoffice application removed app otherwise \n'
p262
aS'- not minutes mobile overheat restart continuously many \n'
p263
aS'- not satisfied battery problem \n'
p264
aS'- phone good shipping worst phone good shipping too please change courier name xpressbees take days ship chennai \n'
p265
aS'- no internal memory buy mobile through snapdeal thre no internal memory given mobile another features good \n'
p266
aS'+ loved good low quality feature budget cant compare high high budget mobiles feature quality \n'
p267
aS'- worst delivery service ever product delivery service got became huge fan snapdeal \n'
p268
aS'- average phone camera not good mp looks like vga mp looks like mp \n'
p269
aS'+ focus nice sim card memory card not worked same time \n'
p270
aS'- infocus found average due unavailable fac ok should been provision dual sim sd card gallery items been stored save phone \n'
p271
aS'+ superrrrrrrr value \n'
p272
aS'+ average ok compare using since last month \n'
p273
aS'+ nice phone range very nice phone \n'
p274
aS'+ average good infocus camera performance good not best \n'
p275
aS'- mobile not good duil sim not active time sd card nano sim not satisfied \n'
p276
aS'+ good product snapdeal good phone good product snapdeal good online shoping site \n'
p277
aS'- very poor processorr not satisfied has very bad download games moblie mobile becomes very \n'
p278
aS'+ average mobile experienced led flash problem rest good \n'
p279
aS'- infocus along product need sell accessories better searching cover tempered \n'
p280
aS'+ good phone best price very good looking fast performance infocus best service snapdeal thanks snapdeal \n'
p281
aS'- infocus infocus mobile very very pls buy \n'
p282
aS'- not satisfied has second sim slot used either nano sim sd hidden \n'
p283
aS'+ overall performance good not better best phone slow ghz processor heat using hour more \n'
p284
aS'- days getting irritated device getting strucked cant sims sd cardcard time \n'
p285
aS'- mobile nice not perfect time very slowly \n'
p286
aS'- cable very short unable insert sims sd card time \n'
p287
aS'+ good product budget battery processer bad \n'
p288
aS'+ good product camera quality not proper like camera flash light quality otherwise better \n'
p289
aS'- bad product not good quality \n'
p290
aS'+ good product good mobile phone problem sd card sim space \n'
p291
aS'- ok type mobile being wise display nice hd display camera not good mobile lags lot good thing average before buy \n'
p292
aS'- bad product camera not good touch not responding time guys buy \n'
p293
aS'+ good product nice camera pic front camera take selfie best \n'
p294
aS'+ single sim phone looks insert sim memory must remove bcz sim slot slot \n'
p295
aS'- phone ok features constrains u memory very low ringer volume very bad \n'
p296
aS'- bad product very worst \n'
p297
aS'+ infocus phone getting overheated using continuously hour price camera quality performance good \n'
p298
aS'+ according price fine hang very expensive display has been broke down change display pay approx single \n'
p299
aS'+ good product not snap design something \n'
p300
aS'- bad product iw good tb didnt able tu sim nd mamory card same camera not good not happy \n'
p301
aS'- bad product handset good voice not good \n'
p302
aS'- bad product hang problem function \n'
p303
aS'- bad product picture quality good things gud bt m giving bcz warranty card not given plz mee info warranty cell \n'
p304
aS'- avoid ram too low ram very \n'
p305
aS'+ good product overall experience mobile quite camera performance not soo good mobile average \n'
p306
aS'- missing inbuilt facility product likely good not given phone fm redio supported head not good procedure \n'
p307
aS'- batteries quick discharge hours normal phone pretty battery capacity very low seen data enabling between sim phone late \n'
p308
aS'- not specification not mark average mobile not worth \n'
p309
aS'- xolo black review phone good sound very bad camera quality mp jock worst quality photo u phone good camera plz \n'
p310
aS'+ good ur money good times display automatically turn thats camera ok not shutter timing really gud \n'
p311
aS'- average compare lenovo note very \n'
p312
aS'- xolo black good has few disadvantages usb drivers pc should auto sharing pc internet feature should \n'
p313
aS'- xolo black average performance phone sleek wt battery stand camera performance avg phone getting heat while using net while using speakers performance too poor \n'
p314
aS'- camera not good instead functions mobile \n'
p315
aS'+ looks nice order hope everything good \n'
p316
aS'+ good xolo black good performance camera phone performance very \n'
p317
aS'- ok average phone ok not great thought branded phones better like samsung \n'
p318
aS'- naveen kumar camera heating problem \n'
p319
aS'+ nice phone nice phone price range \n'
p320
aS'+ processer too fast unique point should buy good pirce more features \n'
p321
aS'+ phone overall avearage phone camera battery ok no hanging problem touch super \n'
p322
aS'+ pinakin modi good last cover not \n'
p323
aS'+ mobile xolo black mobile ws very nice problem battery power very fast discharge \n'
p324
aS'- average performance though good buy cost still many features promised not deliver performance like phone cannot connected devices like pc display apps not touch not still good budget \n'
p325
aS'- low battery performance battery doesnt stand single hours given features ram please battery capable enough handle \n'
p326
aS'- average phone good phone poor camera quality battery \n'
p327
aS'- unsatisfied memory card slot unsatisfied slot system otherwise nice product \n'
p328
aS'+ good product best cell amount \n'
p329
aS'+ vision create impactful digital commerce ecosystem creates like \n'
p330
aS'- bought mobile days ago sir bought mobile used not more days has very bad camera quality getting using battery backup not good wise memory wise good before buy read review worst every mistake done seeing ram \n'
p331
aS'- puspendra patel product good sometimes heated hanged \n'
p332
aS'- average not value money phone camera battery very poor heats lot while playing average performer \n'
p333
aS'+ nice phone features good mobile nice normal hanging \n'
p334
aS'+ battery issue nothing else amazing phone problem issue battery \n'
p335
aS'- bad product nice phone camera quality not good \n'
p336
aS'+ features good android phone had disappoint quality not better low getting hot while playing battery backup \n'
p337
aS'+ nice product mom using around voice clarity ringtone volume ease battery normal runs torch issue not speed otherwise found \n'
p338
aS'+ best product best product very happy thanks \n'
p339
aS'+ good good good function low \n'
p340
aS'- nice loops impressive better bsnl \n'
p341
aS'+ super mobile nice good price \n'
p342
aS'+ kall k blue blue good \n'
p343
aS'+ good call good phone almost basic features like call battery not may mah definitely not lasts whether used luckily had battery previous phone working fine phone backup no vibration three not loud enough heard during travelling average phone ok expect rupee price range best \n'
p344
aS'+ george ignatius weightless mobile mobile very nice \n'
p345
aS'+ honest review really nice good features loud good voice good data good picture above stable hardware loving cons no better \n'
p346
aS'+ perfect product reliable fast delivery trusted snapdeal great product asus snapdeal phone master piece display vivid crispy clear inch size movies gaming lovevly excellent processor gb ram gb internal touch very beautiful corning gorilla glass every thing phone must buy camera coupled mp great both sunlight night led flash both sim g fastest internet surfing seconds thanks snapdeal providing \n'
p347
aS'+ perfect smartphone phone very highlights perfect looks full point screen very easy hand very good performance zen ui has very good feature identical moto g plus x excellent camera \n'
p348
aS'+ asus zenfone low good both camera good good \n'
p349
aS'+ samsung samsung osome ram display comfortable compared grand max suggested got selfi cemera within flash exellnt \n'
p350
aS'+ really nice purchased phone last using really happy purchase battery too no heating \n'
p351
aS'- very bad phone not very poor battery charger not basic features bought low cost phone not phone log doesnt show call times case multiple last call time keypad difficult dialer does not search contact list basis few regret buying phone basis samsung recommend folks nokia feature \n'
p352
aS'+ per price product good phone has fulfill basic little bit small phone compare others performance n functionality wise overall good \n'
p353
aS'+ product feed best quality less weight \n'
p354
aS'- needs special something since purchased item seems not battery got drained hr not using \n'
p355
aS'+ budget phone good sound effect not \n'
p356
aS'- very bad phone very bad phone poor sound quality \n'
p357
aS'- good model good compare markate price costly \n'
p358
aS'- phone feels plasticky phone quality feel plastically make sorts plastic noise while \n'
p359
aS'- dont judge samsung guru music duos snapdeal product defected beacuse since got phone keypad phone not working keypad facing many \n'
p360
aS'- poor quality product not satisfied product delivery product prompt \n'
p361
aS'+ got good product very nice got very low price delivery took very long \n'
p362
aS'- phone stopped working phone stopped working terrifying customer lost faith snapdeal retailer \n'
p363
aS'- not good hi should play no play store due unbale download latest apps wise battery backup everything provide play didnt happy \n'
p364
aS'+ good good phone apps store great fast maximun \n'
p365
aS'+ good download not tizen speed very very very good \n'
p366
aS'- dont buy thissss battery automatically lowwww not fully satisfy mobile \n'
p367
aS'- battery backup not good dear like inform mobile battery backup not good \n'
p368
aS'+ harish comment super mobile good price thank u snapdeal \n'
p369
aS'- not good samsung tizen looking best features not good vedio quality very \n'
p370
aS'- good more app should store nice social networking not good gaming except asphalt \n'
p371
aS'- software not support not installing software like nimbuzz \n'
p372
aS'+ easygoing good phone has nice clarity samsung extremely budget friendly ideal gift good already has few apps touch screen very smooth easy very happy device great smartphone headphones clarity amazing clear u ur parents phone parents need calling messaging good pictures phone has cons battery life not good case smart \n'
p373
aS'+ value decent performance performance quality product very responsiveness device decent display quality good someone new smartphone disadvantage number variety apps not great still long \n'
p374
aS'+ samsung tizen very good phone small apps supported properly many more good features include sound quality camera \n'
p375
aS'+ per chasuble products beautiful handset battery backup good ram memory run fast bought handset recommend handsets \n'
p376
aS'+ buetiful phone really liked fast fotos better daylight compared night buetiful touch very smooth like overall very good performance price \n'
p377
aS'+ wil recomend buy owsommmm phone very less price must buy gives u very good screen size nice camera good picture quality got more expectations got phone business days according price spec \n'
p378
aS'+ laxmikant good n excellent nice n slim body good speed fast sufficient apps \n'
p379
aS'+ nice product nice product future resolution not excellent good good product recommend buy thanks snapdeal \n'
p380
aS'+ late book samsung nice plan gift better mobile price tizen power system camera \n'
p381
aS'+ amazing specs price second storage enough keep touch enough play bulky android games high screen resolution lags due less battery problem not good mother \n'
p382
aS'- irled not poor mic speaker quality days before facility not vailable call mic speaker quality very \n'
p383
aS'+ good ok service fine satisfied quickly got expect product date very nice matter \n'
p384
aS'- continue hour mobile very phone picture quality battery backup running internet continue hours games continue hours mobile very \n'
p385
aS'+ avg battery quality poor wise very good \n'
p386
aS'- slower phone lacks every application \n'
p387
aS'+ comparison not expect more though gb product not screen contrast os lollipop may not suitable google play does not appear menu though shown camera net speed touch sensitivity \n'
p388
aS'- phone average times battery creates problem short delay lighting display during incoming \n'
p389
aS'- internal memory lower screen not looking phone color bad \n'
p390
aS'+ micromax product good cheep rate gb ram gb internal memory overall phone \n'
p391
aS'- not expected phone got behaving like little issue time camera bought expectation good hw not \n'
p392
aS'+ features micromex juice good hd display battery coming audio quality not cost \n'
p393
aS'+ good phone price pros gb ram supports camera good flash mah battery cons weight heavy compared phones heating gets heated long conversation \n'
p394
aS'- phone heat using micromax good time very rate \n'
p395
aS'+ nice low price nice mobile low price like battery camera not upto very upset recommend purchase not much problem arised \n'
p396
aS'- not good phone poor connectivity time call check mobile connectivity no problems connectivity phone poor connectivity recommended purchase rather thinking f replacing phone snapdeal \n'
p397
aS'+ micromax canvas juice product great camera feature gb ram phone little bit overall product good \n'
p398
aS'+ not bad good phone supported mobile ram good video slowly run battery \n'
p399
aS'+ satisfactory product baterry works like phone not giving smooth usage average phone low \n'
p400
aS'- problems sensor problem solve may quit unhappy product \n'
p401
aS'+ good product value good waight otherwise product screen value wise \n'
p402
aS'+ micromax juice silver micromax juice silver good looking best performance handy \n'
p403
aS'+ good phone such range good phone such camera good find touch screen times not \n'
p404
aS'+ snap deal best phone average range snap deal good line market becose avlabil product very lowest price safe custemer given product gurantee \n'
p405
aS'+ product expected micromax raise hopes ok ok nothing too somewhat satisfied experience android average android sometimes very \n'
p406
aS'- micromax time phone automatic shutdown sleep mode start couple hours problem facing feature working nice clarity like very much speed net wrost network location very good phone normal lot feature \n'
p407
aS'- not too good pls donot select gb ram \n'
p408
aS'+ micromax juice phone gud gud phone got every features phone little heavy \n'
p409
aS'+ mahesh phone heats time charging internet \n'
p410
aS'+ product not value \n'
p411
aS'+ good good battry pack charging time hours full charge phone overall good phone \n'
p412
aS'+ nice good phone model not looking cool battery very good screen good overall good phone \n'
p413
aS'+ gud price ram price not smart luck camera u wil ur budget does not allow single penny b spend \n'
p414
aS'- preferable micro max canvas juice product good month usage camera quality ok battery backup ok too slow browsing much memory used inbuilt apps finally product not preferable long life \n'
p415
aS'+ value money performance good phone good not smooth menu application window not trendy no separte option switch gps \n'
p416
aS'- micromax not good call clarity not good opposite always getting poor comparing previous mobile purpose not \n'
p417
aS'- average phone find better phone price \n'
p418
aS'+ micromax smart phone good good battery \n'
p419
aS'+ nice handset feature \n'
p420
aS'+ good phone good key touch not good \n'
p421
aS'+ good product decent feature brought mobile white deliver time packing very good rare camera good images quad ram free internal user android pricing descent though someother site much \n'
p422
aS'+ perfect android device had thrill using good job making touch nice very fast no headphone provided very nice clear crisp battery backup speaker not too installed apps not great quite heavy happy device great smartphone people should really buy rather buying high end smartphone like samsung others offer similar features high minimal budget concerned brand status no stop opting navraj asr \n'
p423
aS'+ snapdeal great thrill using good job making touch nice very fast no headphone provided very nice clear crisp battery backup speaker not too \n'
p424
aS'+ delivery quality very good android mobile price android phone very cheap compare market touch nice very fast no headphone provided very nice battery backup happy device great \n'
p425
aS'+ good device price overall happy comparatively good clarity good functions easy understand deal poor battery poor front camera take good quality many installed applications very little \n'
p426
aS'- not pure smartphone good not pure smart sensor not otg not screen resolution sound quality camera pic quality \n'
p427
aS'- camera picture quality not good though has rear camera \n'
p428
aS'+ micromax good already micromax newly purchased micromax jucie trust micromax \n'
p429
aS'- good camera not good compare type simmillar \n'
p430
aS'+ value money micromax mobile value budget under mobile means buy very nice looking normal usage \n'
p431
aS'- sometime hang device hang sometime screen black no response n half hour automatically power really dispointing \n'
p432
aS'+ experience thick mobile ok speed good may intial stage hoping best speed later thats \n'
p433
aS'+ nice mobile total avrage mobile very big display battry charging nice display good sound nice good mobile \n'
p434
aS'+ quite good good phone low proccesser camera display \n'
p435
aS'- worst has very small display shown \n'
p436
aS'- bad phone dont buy no charger no headphone \n'
p437
aS'- singh not good bcoz box no charger head fone \n'
p438
aS'+ micromax good dont support live \n'
p439
aS'- incomplete accessories purchased surprised no no head sealed realized no mention regarding both specification imagine mobile no simply showing low \n'
p440
aS'+ best android device had thrill using good job making \n'
p441
aS'- micromax slow process network not fast working like network reacharge data like \n'
p442
aS'+ excelent company good mobile giga byte rendom access very sharp result \n'
p443
aS'+ slow touch touchscreen quite overall product screen resolution \n'
p444
aS'- sudden hanging problems phone good not \n'
p445
aS'- false price tag mobile good offer not true discount \n'
p446
aS'- complain good mobile battery not removable battery specification available net differ battery supplied mobile per net battery battery supplied hand set not under \n'
p447
aS'- battery overheat battery getting mobile has been shutting down though has mobile gets heated while using app dont buy \n'
p448
aS'- problem phone cover panel not proper changed contact snapdeal \n'
p449
aS'+ looking simply looking backup good \n'
p450
aS'+ very good online purchas snapdel very good online delivery quickly like \n'
p451
aS'+ nice very happy sevices im purchasing material snapdeal through happy \n'
p452
aS'+ hi like mobile wonderful battery backup smartphone low budget \n'
p453
aS'+ except slim n weight battery works \n'
p454
aS'+ average phone price range battary backup good sound quality average camera average good features average overall value money \n'
p455
aS'- very poor camera high specifications buy product looking good \n'
p456
aS'- charging problem almost takes hours full charged disconnect charger charged worst charging prospectus \n'
p457
aS'- very bad phone bought phone huge expectation grand not able proper battery thought phone mah battery good unite hai less battery getting drained per minute \n'
p458
aS'- product u r sending not giving warranty \n'
p459
aS'+ ordinary product great snapdeal service app no expected delivery date snapdeal left wondering dispatch date same delivery date not not good experience buying products snapdeal \n'
p460
aS'- very dispointing snapdeal bought mobile days ago charger not working very disappointed service \n'
p461
aS'+ three good moderate android touchwiz box expandable memory upto dual sim low resolution x low inbuilt average average camera low resolution video recording \n'
p462
aS'- not pure smartphone good not pure smart sensor not otg not screen resolution sound quality camera pic quality \n'
p463
aS'- average samsung phone phone memory phone hang too much camera not price samsung phone average recommend phone customer mind purchase not \n'
p464
aS'+ ordinary mobile delivery application like location phone memory not getting courier asking extra shipping charge free \n'
p465
aS'- mobile very hanging duplicate \n'
p466
aS'+ micromax unite awesome online phone price \n'
p467
aS'+ worth money worth looks delivered \n'
p468
aS'+ manglore ya good otherwise shop seeing many phones here means choose home nw r working no time keep good \n'
p469
aS'+ price best average \n'
p470
aS'+ micromax should buy not value money those interested nothing except utilizing phone calling prove loss those parents going had little children games apps phone deduct money plus great feature low price like fm gprs clear audio negative no internal need memory card battery life quiet low nevertheless phone has apps deduct talktime upto thats recommend phone those need calling nd texting \n'
p471
aS'- bad hearing not suggest anyone buy cost going paying cheap sound coming phone loud head started suggest same range samsung nokia reason micromax sells cheap \n'
p472
aS'+ decent price nice product mid sized decent enough product suit been better plastic suggest guys compare nokias samsungs before buying better models priced slightly higher otherwise good \n'
p473
aS'- micromax week purchased mobile not battery not good \n'
p474
aS'- average phone display not clear not good struggle \n'
p475
aS'- snapdeal price best good micromax not focussing received defective charger inside \n'
p476
aS'+ nice product good product keypad very useful long \n'
p477
aS'- dont buy handset very bad cheap plastic vibrates without vibrate very disappointed never mmx \n'
p478
aS'- okkkkk good product price cord not headset having ear cord charger cord very processor very slow not suitable average product \n'
p479
aS'- buy waste product micromax \n'
p480
aS'+ good product cheap rate product good springy vibrated much \n'
p481
aS'- working not good purchased has stopped working times \n'
p482
aS'- not good operating very slow n poor technology not user friendly \n'
p483
aS'+ ok price phone ok price received very person bought started using few months \n'
p484
aS'- price wap memory full show switch off phone connect internet \n'
p485
aS'- need more mix laptop where docs ppts save pics connect hard apple not giving options limiting product unable take wifi except apple should internet phone apple pls make globally usable \n'
p486
aS'+ good product product took weeks shipped snapdeal wrong estimated delivery dates \n'
p487
aS'+ overall great been using product since completely satisfied features net battery reading thing disappointed no whatsapp messenger viber apps received delivery ipad air has operating system ios facing problem auto rebooting middle upgrading latest ios problem speaker volume bit \n'
p488
aS'+ recommend picture quality camera bad compared regular mobile not claimed disappointed rear \n'
p489
aS'+ best product forever awesome tablet apple support n best forever \n'
p490
aS'+ good service product delivered time did not allow check product before ipad air gb cellular working good product purchase apple good gadget affordable \n'
p491
aS'+ lenovo tab wifi tablet decent tab price gaming watching movies \n'
p492
aS'- not satisfied tab does not play hd hanging buy product \n'
p493
aS'- tab hanging problem not good tablet very hanging not respons snapdeal \n'
p494
aS'- product poor disconnets autometiclly while gudgets remain sucks u play online no inbuilt music u google play tabs instead camera no capatures reversed image \n'
p495
aS'+ simple tab time users using videos ok better \n'
p496
aS'+ lenovo tab tablet product good delivery very like invoice soft copy warranty purpose \n'
p497
aS'+ value money mid range display ram speed light weight good not finger print decent battery slightly dissapointing ebook pdf apps text rendering ansoid kitkat seems overall less tablet worth buy overlook few tablet has excellent audio output via dolby \n'
p498
aS'+ tab good wifi issue otherwise tab nice calling \n'
p499
aS'+ ordinary good tablet gamers screen brightnes low outdoors glare screen stucks times good tablet price range \n'
p500
aS'- wifi heating problem wifi not connecting next samsung phone lava connecting wifi next room tablet giving table getting hot side light holding tablet side while playing \n'
p501
aS'+ best tablet price best tablet price good quality battery totally better price branded tablet no cannot gives features \n'
p502
a.